; Function Attrs: nofree norecurse nosync nounwind memory(read, argmem: readwrite, inaccessiblemem: none) uwtable
define hidden range(i32 -102, 1) i32 @mbedtls_asn1_get_bitstring(ptr noundef captures(none) %0, ptr noundef %1, ptr noundef writeonly captures(none) %2) local_unnamed_addr #0 {
  %4 = load ptr, ptr %0, align 8, !tbaa !3
  %5 = ptrtoint ptr %1 to i64
  %6 = ptrtoint ptr %4 to i64
  %7 = sub i64 %5, %6
  %8 = icmp slt i64 %7, 1
  br i1 %8, label %mbedtls_asn1_get_tag.exit.thread, label %9

9:                                                ; preds = %3
  %10 = load i8, ptr %4, align 1, !tbaa !8
  %.not.i = icmp eq i8 %10, 3
  br i1 %.not.i, label %11, label %mbedtls_asn1_get_tag.exit.thread

11:                                               ; preds = %9
  %12 = getelementptr inbounds nuw i8, ptr %4, i64 1
  store ptr %12, ptr %0, align 8, !tbaa !3
  %13 = ptrtoint ptr %12 to i64
  %14 = sub i64 %5, %13
  %15 = icmp slt i64 %14, 1
  br i1 %15, label %mbedtls_asn1_get_tag.exit.thread, label %16

16:                                               ; preds = %11
  %17 = load i8, ptr %12, align 1, !tbaa !8
  %18 = icmp sgt i8 %17, -1
  br i1 %18, label %19, label %23

19:                                               ; preds = %16
  %20 = getelementptr inbounds nuw i8, ptr %4, i64 2
  store ptr %20, ptr %0, align 8, !tbaa !3
  %21 = load i8, ptr %12, align 1, !tbaa !8
  %22 = zext i8 %21 to i64
  store i64 %22, ptr %2, align 8, !tbaa !9
  br label %.loopexit.i.i

23:                                               ; preds = %16
  %24 = and i8 %17, 127
  %25 = zext nneg i8 %24 to i32
  %26 = add nsw i8 %24, -5
  %or.cond.i.i = icmp ult i8 %26, -4
  br i1 %or.cond.i.i, label %mbedtls_asn1_get_tag.exit.thread, label %27

27:                                               ; preds = %23
  %28 = zext nneg i8 %24 to i64
  %.not.i.i = icmp samesign ugt i64 %14, %28
  br i1 %.not.i.i, label %.lr.ph.preheader.i.i, label %mbedtls_asn1_get_tag.exit.thread

.lr.ph.preheader.i.i:                             ; preds = %27
  store i64 0, ptr %2, align 8, !tbaa !9
  %storemerge32.i.i = getelementptr inbounds nuw i8, ptr %4, i64 2
  store ptr %storemerge32.i.i, ptr %0, align 8, !tbaa !3
  br label %.lr.ph.i.i

.lr.ph.i.i:                                       ; preds = %.lr.ph.i.i, %.lr.ph.preheader.i.i
  %storemerge36.i.i = phi ptr [ %storemerge.i.i, %.lr.ph.i.i ], [ %storemerge32.i.i, %.lr.ph.preheader.i.i ]
  %.02335.i.i = phi i32 [ %29, %.lr.ph.i.i ], [ %25, %.lr.ph.preheader.i.i ]
  %storemerge3134.i.i = phi i64 [ %33, %.lr.ph.i.i ], [ 0, %.lr.ph.preheader.i.i ]
  %29 = add nsw i32 %.02335.i.i, -1
  %30 = shl i64 %storemerge3134.i.i, 8
  %31 = load i8, ptr %storemerge36.i.i, align 1, !tbaa !8
  %32 = zext i8 %31 to i64
  %33 = or disjoint i64 %30, %32
  store i64 %33, ptr %2, align 8, !tbaa !9
  %storemerge.i.i = getelementptr inbounds nuw i8, ptr %storemerge36.i.i, i64 1
  store ptr %storemerge.i.i, ptr %0, align 8, !tbaa !3
  %.not27.i.i = icmp eq i32 %29, 0
  br i1 %.not27.i.i, label %.loopexit.i.i, label %.lr.ph.i.i, !llvm.loop !11

.loopexit.i.i:                                    ; preds = %.lr.ph.i.i, %19
  %34 = phi ptr [ %20, %19 ], [ %storemerge.i.i, %.lr.ph.i.i ]
  %35 = phi i64 [ %22, %19 ], [ %33, %.lr.ph.i.i ]
  %36 = ptrtoint ptr %34 to i64
  %37 = sub i64 %5, %36
  %38 = add i64 %35, -1
  %or.cond.not = icmp ult i64 %38, %37
  br i1 %or.cond.not, label %39, label %mbedtls_asn1_get_tag.exit.thread

39:                                               ; preds = %.loopexit.i.i
  %40 = add i64 %35, -1
  store i64 %40, ptr %2, align 8, !tbaa !17
  %41 = load i8, ptr %34, align 1, !tbaa !8
  %42 = getelementptr inbounds nuw i8, ptr %2, i64 8
  store i8 %41, ptr %42, align 8, !tbaa !19
  %43 = icmp ugt i8 %41, 7
  br i1 %43, label %mbedtls_asn1_get_tag.exit.thread, label %44

44:                                               ; preds = %39
  %45 = getelementptr inbounds nuw i8, ptr %34, i64 1
  store ptr %45, ptr %0, align 8, !tbaa !3
  %46 = getelementptr inbounds nuw i8, ptr %2, i64 16
  store ptr %45, ptr %46, align 8, !tbaa !20
  %47 = load ptr, ptr %0, align 8, !tbaa !3
  %48 = getelementptr inbounds nuw i8, ptr %47, i64 %40
  store ptr %48, ptr %0, align 8, !tbaa !3
  %.not18 = icmp eq ptr %48, %1
  %. = select i1 %.not18, i32 0, i32 -102
  br label %mbedtls_asn1_get_tag.exit.thread

mbedtls_asn1_get_tag.exit.thread:                 ; preds = %.loopexit.i.i, %23, %27, %11, %9, %3, %44, %39
  %.0 = phi i32 [ -100, %39 ], [ %., %44 ], [ -100, %23 ], [ -96, %27 ], [ -96, %11 ], [ -98, %9 ], [ -96, %3 ], [ -96, %.loopexit.i.i ]
  ret i32 %.0
}